target datalayout = "e-m:e-p270:32:32-p271:32:32-p272:64:64-i64:64-i128:128-f80:128-n8:16:32:64-S128"
target triple = "x86_64-pc-linux-gnu"

@.str.2598 = private unnamed_addr constant [19 x i8] c"ObjectIdentifier: \00", align 1
@.str.3812 = private unnamed_addr constant [27 x i8] c"acknowledging Process Id: \00", align 1
@.str.3813 = private unnamed_addr constant [27 x i8] c"event State Acknowledged: \00", align 1
@.str.3814 = private unnamed_addr constant [25 x i8] c"acknowledgement Source: \00", align 1
@.str.3815 = private unnamed_addr constant [28 x i8] c"acknowledgement timestamp: \00", align 1

; Function Attrs: null_pointer_is_valid sspstrong uwtable
define internal i32 @fCharacterString(ptr noundef %0, ptr noundef %1, ptr noundef %2, i32 noundef %3, ptr noundef %4) #0 {
  %6 = alloca ptr, align 8
  %7 = alloca ptr, align 8
  %8 = alloca ptr, align 8
  %9 = alloca i32, align 4
  %10 = alloca ptr, align 8
  store ptr %0, ptr %6, align 8
  store ptr %1, ptr %7, align 8
  store ptr %2, ptr %8, align 8
  store i32 %3, ptr %9, align 4
  store ptr %4, ptr %10, align 8
  %11 = load ptr, ptr %6, align 8
  %12 = load ptr, ptr %7, align 8
  %13 = load ptr, ptr %8, align 8
  %14 = load i32, ptr %9, align 4
  %15 = load ptr, ptr %10, align 8
  %16 = call i32 @fCharacterStringBase(ptr noundef %11, ptr noundef %12, ptr noundef %13, i32 noundef %14, ptr noundef %15, i1 noundef zeroext false, i1 noundef zeroext false)
  ret i32 %16
}

; Function Attrs: null_pointer_is_valid sspstrong uwtable
define internal i32 @fTagNo(ptr noundef %0, i32 noundef %1) #0 {
  %3 = alloca ptr, align 8
  %4 = alloca i32, align 4
  store ptr %0, ptr %3, align 8
  store i32 %1, ptr %4, align 4
  %5 = load ptr, ptr %3, align 8
  %6 = load i32, ptr %4, align 4
  %7 = call zeroext i8 @tvb_get_uint8(ptr noundef %5, i32 noundef %6)
  %8 = zext i8 %7 to i32
  %9 = ashr i32 %8, 4
  ret i32 %9
}

; Function Attrs: null_pointer_is_valid sspstrong uwtable
define internal i32 @fAcknowledgeAlarmRequest(ptr noundef %0, ptr noundef %1, ptr noundef %2, i32 noundef %3) #0 {
  %5 = alloca i32, align 4
  %6 = alloca ptr, align 8
  %7 = alloca ptr, align 8
  %8 = alloca ptr, align 8
  %9 = alloca i32, align 4
  %10 = alloca i32, align 4
  %11 = alloca i8, align 1
  %12 = alloca i8, align 1
  %13 = alloca i32, align 4
  %14 = alloca i32, align 4
  store ptr %0, ptr %6, align 8
  store ptr %1, ptr %7, align 8
  store ptr %2, ptr %8, align 8
  store i32 %3, ptr %9, align 4
  call void @llvm.lifetime.start.p0(i64 4, ptr %10) #7
  store i32 0, ptr %10, align 4
  call void @llvm.lifetime.start.p0(i64 1, ptr %11) #7
  store i8 0, ptr %11, align 1
  call void @llvm.lifetime.start.p0(i64 1, ptr %12) #7
  store i8 0, ptr %12, align 1
  call void @llvm.lifetime.start.p0(i64 4, ptr %13) #7
  store i32 0, ptr %13, align 4
  br label %15

15:                                               ; preds = %96, %4
  %16 = load ptr, ptr %6, align 8
  %17 = load i32, ptr %9, align 4
  %18 = call i32 @tvb_reported_length_remaining(ptr noundef %16, i32 noundef %17)
  %19 = icmp sgt i32 %18, 0
  br i1 %19, label %20, label %97

20:                                               ; preds = %15
  %21 = load i32, ptr %9, align 4
  store i32 %21, ptr %10, align 4
  %22 = load ptr, ptr %6, align 8
  %23 = load i32, ptr %9, align 4
  %24 = call i32 @fTagNo(ptr noundef %22, i32 noundef %23)
  switch i32 %24, label %89 [
    i32 0, label %25
    i32 1, label %31
    i32 2, label %37
    i32 3, label %43
    i32 4, label %63
    i32 5, label %69
  ]

25:                                               ; preds = %20
  %26 = load ptr, ptr %6, align 8
  %27 = load ptr, ptr %7, align 8
  %28 = load ptr, ptr %8, align 8
  %29 = load i32, ptr %9, align 4
  %30 = call i32 @fUnsignedTag(ptr noundef %26, ptr noundef %27, ptr noundef %28, i32 noundef %29, ptr noundef @.str.3812)
  store i32 %30, ptr %9, align 4
  br label %91

31:                                               ; preds = %20
  %32 = load ptr, ptr %6, align 8
  %33 = load ptr, ptr %7, align 8
  %34 = load ptr, ptr %8, align 8
  %35 = load i32, ptr %9, align 4
  %36 = call i32 @fObjectIdentifier(ptr noundef %32, ptr noundef %33, ptr noundef %34, i32 noundef %35, ptr noundef @.str.2598)
  store i32 %36, ptr %9, align 4
  br label %91

37:                                               ; preds = %20
  %38 = load ptr, ptr %6, align 8
  %39 = load ptr, ptr %7, align 8
  %40 = load ptr, ptr %8, align 8
  %41 = load i32, ptr %9, align 4
  %42 = call i32 @fEnumeratedTagSplit(ptr noundef %38, ptr noundef %39, ptr noundef %40, i32 noundef %41, ptr noundef @.str.3813, ptr noundef @BACnetEventState, i32 noundef 64)
  store i32 %42, ptr %9, align 4
  br label %91

43:                                               ; preds = %20
  %44 = load ptr, ptr %6, align 8
  %45 = load ptr, ptr %7, align 8
  %46 = load ptr, ptr %8, align 8
  %47 = load i32, ptr %9, align 4
  %48 = call i32 @fTagHeaderTree(ptr noundef %44, ptr noundef %45, ptr noundef %46, i32 noundef %47, ptr noundef %11, ptr noundef %12, ptr noundef %13)
  %49 = load i32, ptr %9, align 4
  %50 = add i32 %49, %48
  store i32 %50, ptr %9, align 4
  %51 = load ptr, ptr %6, align 8
  %52 = load ptr, ptr %7, align 8
  %53 = load ptr, ptr %8, align 8
  %54 = load i32, ptr %9, align 4
  %55 = call i32 @fTimeStamp(ptr noundef %51, ptr noundef %52, ptr noundef %53, i32 noundef %54, ptr noundef null)
  store i32 %55, ptr %9, align 4
  %56 = load ptr, ptr %6, align 8
  %57 = load ptr, ptr %7, align 8
  %58 = load ptr, ptr %8, align 8
  %59 = load i32, ptr %9, align 4
  %60 = call i32 @fTagHeaderTree(ptr noundef %56, ptr noundef %57, ptr noundef %58, i32 noundef %59, ptr noundef %11, ptr noundef %12, ptr noundef %13)
  %61 = load i32, ptr %9, align 4
  %62 = add i32 %61, %60
  store i32 %62, ptr %9, align 4
  br label %91

63:                                               ; preds = %20
  %64 = load ptr, ptr %6, align 8
  %65 = load ptr, ptr %7, align 8
  %66 = load ptr, ptr %8, align 8
  %67 = load i32, ptr %9, align 4
  %68 = call i32 @fCharacterString(ptr noundef %64, ptr noundef %65, ptr noundef %66, i32 noundef %67, ptr noundef @.str.3814)
  store i32 %68, ptr %9, align 4
  br label %91

69:                                               ; preds = %20
  %70 = load ptr, ptr %6, align 8
  %71 = load ptr, ptr %7, align 8
  %72 = load ptr, ptr %8, align 8
  %73 = load i32, ptr %9, align 4
  %74 = call i32 @fTagHeaderTree(ptr noundef %70, ptr noundef %71, ptr noundef %72, i32 noundef %73, ptr noundef %11, ptr noundef %12, ptr noundef %13)
  %75 = load i32, ptr %9, align 4
  %76 = add i32 %75, %74
  store i32 %76, ptr %9, align 4
  %77 = load ptr, ptr %6, align 8
  %78 = load ptr, ptr %7, align 8
  %79 = load ptr, ptr %8, align 8
  %80 = load i32, ptr %9, align 4
  %81 = call i32 @fTimeStamp(ptr noundef %77, ptr noundef %78, ptr noundef %79, i32 noundef %80, ptr noundef @.str.3815)
  store i32 %81, ptr %9, align 4
  %82 = load ptr, ptr %6, align 8
  %83 = load ptr, ptr %7, align 8
  %84 = load ptr, ptr %8, align 8
  %85 = load i32, ptr %9, align 4
  %86 = call i32 @fTagHeaderTree(ptr noundef %82, ptr noundef %83, ptr noundef %84, i32 noundef %85, ptr noundef %11, ptr noundef %12, ptr noundef %13)
  %87 = load i32, ptr %9, align 4
  %88 = add i32 %87, %86
  store i32 %88, ptr %9, align 4
  br label %91

89:                                               ; preds = %20
  %90 = load i32, ptr %9, align 4
  store i32 %90, ptr %5, align 4
  store i32 1, ptr %14, align 4
  br label %99

91:                                               ; preds = %69, %63, %43, %37, %31, %25
  %92 = load i32, ptr %9, align 4
  %93 = load i32, ptr %10, align 4
  %94 = icmp ule i32 %92, %93
  br i1 %94, label %95, label %96

95:                                               ; preds = %91
  br label %97

96:                                               ; preds = %91
  br label %15, !llvm.loop !162

97:                                               ; preds = %95, %15
  %98 = load i32, ptr %9, align 4
  store i32 %98, ptr %5, align 4
  store i32 1, ptr %14, align 4
  br label %99

99:                                               ; preds = %97, %89
  call void @llvm.lifetime.end.p0(i64 4, ptr %13) #7
  call void @llvm.lifetime.end.p0(i64 1, ptr %12) #7
  call void @llvm.lifetime.end.p0(i64 1, ptr %11) #7
  call void @llvm.lifetime.end.p0(i64 4, ptr %10) #7
  %100 = load i32, ptr %5, align 4
  ret i32 %100
}