; Function Attrs: null_pointer_is_valid sspstrong uwtable
define internal fastcc i32 @fAcknowledgeAlarmRequest(ptr noundef nonnull %0, ptr noundef %1, ptr noundef %2, i32 noundef range(i32 0, 7) %3) unnamed_addr #0 {
  %5 = alloca i8, align 1
  %6 = alloca i8, align 1
  %7 = alloca i32, align 4
  call void @llvm.lifetime.start.p0(i64 1, ptr nonnull %5) #6
  store i8 0, ptr %5, align 1
  call void @llvm.lifetime.start.p0(i64 1, ptr nonnull %6) #6
  call void @llvm.lifetime.start.p0(i64 4, ptr nonnull %7) #6
  store i32 0, ptr %7, align 4
  br label %8

8:                                                ; preds = %34, %4
  %.0 = phi i32 [ %3, %4 ], [ %.2, %34 ]
  %9 = tail call i32 @tvb_reported_length_remaining(ptr noundef nonnull %0, i32 noundef %.0)
  %10 = icmp sgt i32 %9, 0
  br i1 %10, label %11, label %35

11:                                               ; preds = %8
  %12 = tail call zeroext i8 @tvb_get_uint8(ptr noundef nonnull %0, i32 noundef %.0)
  %13 = lshr i8 %12, 4
  switch i8 %13, label %35 [
    i8 0, label %14
    i8 1, label %16
    i8 2, label %18
    i8 3, label %20
    i8 4, label %26
    i8 5, label %28
  ]

14:                                               ; preds = %11
  %15 = tail call fastcc i32 @fUnsignedTag(ptr noundef %0, ptr noundef %1, ptr noundef %2, i32 noundef %.0, ptr noundef nonnull @.str.3812)
  br label %34

16:                                               ; preds = %11
  %17 = tail call fastcc i32 @fObjectIdentifier(ptr noundef %0, ptr noundef %1, ptr noundef %2, i32 noundef %.0, ptr noundef nonnull @.str.2598)
  br label %34

18:                                               ; preds = %11
  %19 = tail call fastcc i32 @fEnumeratedTagSplit(ptr noundef %0, ptr noundef %1, ptr noundef %2, i32 noundef %.0, ptr noundef nonnull @.str.3813, ptr noundef nonnull @BACnetEventState, i32 noundef 64)
  br label %34

20:                                               ; preds = %11
  %21 = call fastcc i32 @fTagHeaderTree(ptr noundef %0, ptr noundef %1, ptr noundef %2, i32 noundef %.0, ptr noundef nonnull %5, ptr noundef nonnull %6, ptr noundef nonnull %7)
  %22 = add i32 %21, %.0
  %23 = tail call fastcc i32 @fTimeStamp(ptr noundef %0, ptr noundef %1, ptr noundef %2, i32 noundef %22, ptr noundef null)
  %24 = call fastcc i32 @fTagHeaderTree(ptr noundef %0, ptr noundef %1, ptr noundef %2, i32 noundef %23, ptr noundef nonnull %5, ptr noundef nonnull %6, ptr noundef nonnull %7)
  %25 = add i32 %24, %23
  br label %34

26:                                               ; preds = %11
  %27 = tail call fastcc i32 @fCharacterStringBase(ptr noundef nonnull %0, ptr noundef %1, ptr noundef %2, i32 noundef %.0, ptr noundef nonnull @.str.3814, i1 noundef zeroext false, i1 noundef zeroext false)
  br label %34

28:                                               ; preds = %11
  %29 = call fastcc i32 @fTagHeaderTree(ptr noundef %0, ptr noundef %1, ptr noundef %2, i32 noundef %.0, ptr noundef nonnull %5, ptr noundef nonnull %6, ptr noundef nonnull %7)
  %30 = add i32 %29, %.0
  %31 = tail call fastcc i32 @fTimeStamp(ptr noundef %0, ptr noundef %1, ptr noundef %2, i32 noundef %30, ptr noundef nonnull @.str.3815)
  %32 = call fastcc i32 @fTagHeaderTree(ptr noundef %0, ptr noundef %1, ptr noundef %2, i32 noundef %31, ptr noundef nonnull %5, ptr noundef nonnull %6, ptr noundef nonnull %7)
  %33 = add i32 %32, %31
  br label %34

34:                                               ; preds = %28, %26, %20, %18, %16, %14
  %.2 = phi i32 [ %33, %28 ], [ %27, %26 ], [ %25, %20 ], [ %19, %18 ], [ %17, %16 ], [ %15, %14 ]
  %.not = icmp ugt i32 %.2, %.0
  br i1 %.not, label %8, label %35, !llvm.loop !169

35:                                               ; preds = %8, %34, %11
  %.053 = phi i32 [ %.0, %11 ], [ %.2, %34 ], [ %.0, %8 ]
  call void @llvm.lifetime.end.p0(i64 4, ptr nonnull %7) #6
  call void @llvm.lifetime.end.p0(i64 1, ptr nonnull %6) #6
  call void @llvm.lifetime.end.p0(i64 1, ptr nonnull %5) #6
  ret i32 %.053
}